target datalayout = "e-m:e-p270:32:32-p271:32:32-p272:64:64-i64:64-i128:128-f80:128-n8:16:32:64-S128"
target triple = "x86_64-unknown-linux-gnu"

%"class.icu_75::Formattable" = type { %"class.icu_75::UObject", %union.anon, ptr, ptr, i32, %"class.icu_75::UnicodeString" }
%"class.icu_75::UObject" = type { ptr }
%union.anon = type { %struct.anon }
%struct.anon = type { ptr, i32 }
%"class.icu_75::UnicodeString" = type { %"class.icu_75::Replaceable", %"union.icu_75::UnicodeString::StackBufferOrFields" }
%"class.icu_75::Replaceable" = type { %"class.icu_75::UObject" }
%"union.icu_75::UnicodeString::StackBufferOrFields" = type { %struct.anon.1, [32 x i8] }
%struct.anon.1 = type { i16, i32, i32, ptr }

; Function Attrs: mustprogress nounwind uwtable
define internal noundef signext i8 @_ZL9U_SUCCESS10UErrorCode(i32 noundef %code) #0 {
entry:
  %code.addr = alloca i32, align 4
  store i32 %code, ptr %code.addr, align 4
  %0 = load i32, ptr %code.addr, align 4
  %cmp = icmp sle i32 %0, 0
  %conv = zext i1 %cmp to i8
  ret i8 %conv
}

; Function Attrs: mustprogress nounwind uwtable
define noundef i32 @_ZNK6icu_7511Formattable7getTypeEv(ptr noundef nonnull align 8 dereferenceable(112) %this) #0 align 2 {
entry:
  %this.addr = alloca ptr, align 8
  store ptr %this, ptr %this.addr, align 8
  %this1 = load ptr, ptr %this.addr, align 8
  %fType = getelementptr inbounds %"class.icu_75::Formattable", ptr %this1, i32 0, i32 4
  %0 = load i32, ptr %fType, align 8
  ret i32 %0
}

; Function Attrs: mustprogress nounwind uwtable
define noundef ptr @_ZNK6icu_7511Formattable9getObjectEv(ptr noundef nonnull align 8 dereferenceable(112) %this) #0 align 2 {
entry:
  %this.addr = alloca ptr, align 8
  store ptr %this, ptr %this.addr, align 8
  %this1 = load ptr, ptr %this.addr, align 8
  %fType = getelementptr inbounds %"class.icu_75::Formattable", ptr %this1, i32 0, i32 4
  %0 = load i32, ptr %fType, align 8
  %cmp = icmp eq i32 %0, 6
  br i1 %cmp, label %cond.true, label %cond.false

cond.true:                                        ; preds = %entry
  %fValue = getelementptr inbounds %"class.icu_75::Formattable", ptr %this1, i32 0, i32 1
  %1 = load ptr, ptr %fValue, align 8
  br label %cond.end

cond.false:                                       ; preds = %entry
  br label %cond.end

cond.end:                                         ; preds = %cond.false, %cond.true
  %cond = phi ptr [ %1, %cond.true ], [ null, %cond.false ]
  ret ptr %cond
}

; Function Attrs: mustprogress nounwind uwtable
define linkonce_odr noundef ptr @_ZN6icu_7511Formattable16fromUFormattableEPKPv(ptr noundef %fmt) #0 comdat align 2 {
entry:
  %fmt.addr = alloca ptr, align 8
  store ptr %fmt, ptr %fmt.addr, align 8
  %0 = load ptr, ptr %fmt.addr, align 8
  ret ptr %0
}

; Function Attrs: mustprogress uwtable
define ptr @ufmt_getObject_75(ptr noundef %fmt, ptr noundef %status) #1 {
entry:
  %fmt.addr = alloca ptr, align 8
  %status.addr = alloca ptr, align 8
  %obj = alloca ptr, align 8
  %ret = alloca ptr, align 8
  store ptr %fmt, ptr %fmt.addr, align 8
  store ptr %status, ptr %status.addr, align 8
  %0 = load ptr, ptr %fmt.addr, align 8
  %call = call noundef ptr @_ZN6icu_7511Formattable16fromUFormattableEPKPv(ptr noundef %0)
  store ptr %call, ptr %obj, align 8
  %1 = load ptr, ptr %obj, align 8
  %call1 = call noundef ptr @_ZNK6icu_7511Formattable9getObjectEv(ptr noundef nonnull align 8 dereferenceable(112) %1)
  store ptr %call1, ptr %ret, align 8
  %2 = load ptr, ptr %ret, align 8
  %cmp = icmp eq ptr %2, null
  br i1 %cmp, label %land.lhs.true, label %if.end

land.lhs.true:                                    ; preds = %entry
  %3 = load ptr, ptr %obj, align 8
  %call2 = call noundef i32 @_ZNK6icu_7511Formattable7getTypeEv(ptr noundef nonnull align 8 dereferenceable(112) %3)
  %cmp3 = icmp ne i32 %call2, 6
  br i1 %cmp3, label %land.lhs.true4, label %if.end

land.lhs.true4:                                   ; preds = %land.lhs.true
  %4 = load ptr, ptr %status.addr, align 8
  %5 = load i32, ptr %4, align 4
  %call5 = call noundef signext i8 @_ZL9U_SUCCESS10UErrorCode(i32 noundef %5)
  %tobool = icmp ne i8 %call5, 0
  br i1 %tobool, label %if.then, label %if.end

if.then:                                          ; preds = %land.lhs.true4
  %6 = load ptr, ptr %status.addr, align 8
  store i32 3, ptr %6, align 4
  br label %if.end

if.end:                                           ; preds = %if.then, %land.lhs.true4, %land.lhs.true, %entry
  %7 = load ptr, ptr %ret, align 8
  ret ptr %7
}