; Function Attrs: mustprogress nofree norecurse nosync nounwind willreturn memory(argmem: readwrite) uwtable
define ptr @ufmt_getObject_75(ptr nocapture noundef readonly %fmt, ptr nocapture noundef %status) local_unnamed_addr #12 {
entry:
  %fType.i = getelementptr inbounds i8, ptr %fmt, i64 40
  %0 = load i32, ptr %fType.i, align 8
  %cmp.i = icmp eq i32 %0, 6
  %fValue.i = getelementptr inbounds i8, ptr %fmt, i64 8
  %1 = load ptr, ptr %fValue.i, align 8
  %cond.i = select i1 %cmp.i, ptr %1, ptr null
  %cmp = icmp ne ptr %cond.i, null
  %brmerge = or i1 %cmp.i, %cmp
  br i1 %brmerge, label %if.end, label %land.lhs.true4

land.lhs.true4:                                   ; preds = %entry
  %2 = load i32, ptr %status, align 4
  %cmp.i5 = icmp sgt i32 %2, 0
  br i1 %cmp.i5, label %if.end, label %if.then

if.then:                                          ; preds = %land.lhs.true4
  store i32 3, ptr %status, align 4
  br label %if.end

if.end:                                           ; preds = %entry, %if.then, %land.lhs.true4
  ret ptr %cond.i
}